target datalayout = "e-m:e-p270:32:32-p271:32:32-p272:64:64-i64:64-i128:128-f80:128-n8:16:32:64-S128"
target triple = "x86_64-unknown-linux-gnu"

%struct.timeval = type { i64, i64 }

@trace_events_enabled_count = external global i32, align 4
@message_with_timestamp = external global i8, align 1
@qemu_loglevel = external global i32, align 4
@_TRACE_E1000X_RX_OVERSIZED_DSTATE = external global i16, align 2
@.str.18 = private unnamed_addr constant [95 x i8] c"%d@%zu.%06zu:e1000x_rx_oversized Received packet dropped because it was oversized (%zu bytes)\0A\00", align 1
@.str.19 = private unnamed_addr constant [82 x i8] c"e1000x_rx_oversized Received packet dropped because it was oversized (%zu bytes)\0A\00", align 1

; Function Attrs: nounwind sspstrong uwtable
define internal zeroext i1 @qemu_loglevel_mask(i32 noundef %mask) #0 {
entry:
  %mask.addr = alloca i32, align 4
  store i32 %mask, ptr %mask.addr, align 4
  %0 = load i32, ptr @qemu_loglevel, align 4
  %1 = load i32, ptr %mask.addr, align 4
  %and = and i32 %0, %1
  %cmp = icmp ne i32 %and, 0
  ret i1 %cmp
}

; Function Attrs: nounwind sspstrong uwtable
define internal void @_nocheck__trace_e1000x_rx_oversized(i64 noundef %size) #0 {
entry:
  %size.addr = alloca i64, align 8
  %_now = alloca %struct.timeval, align 8
  store i64 %size, ptr %size.addr, align 8
  %0 = load i32, ptr @trace_events_enabled_count, align 4
  %tobool = icmp ne i32 %0, 0
  %lnot = xor i1 %tobool, true
  %lnot1 = xor i1 %lnot, true
  %lnot.ext = zext i1 %lnot1 to i32
  %conv = sext i32 %lnot.ext to i64
  %tobool2 = icmp ne i64 %conv, 0
  br i1 %tobool2, label %land.lhs.true, label %if.end11

land.lhs.true:                                    ; preds = %entry
  %1 = load i16, ptr @_TRACE_E1000X_RX_OVERSIZED_DSTATE, align 2
  %conv3 = zext i16 %1 to i32
  %tobool4 = icmp ne i32 %conv3, 0
  br i1 %tobool4, label %land.lhs.true5, label %if.end11

land.lhs.true5:                                   ; preds = %land.lhs.true
  %call = call zeroext i1 @qemu_loglevel_mask(i32 noundef 32768)
  br i1 %call, label %if.then, label %if.end11

if.then:                                          ; preds = %land.lhs.true5
  %2 = load i8, ptr @message_with_timestamp, align 1
  %tobool7 = trunc i8 %2 to i1
  br i1 %tobool7, label %if.then8, label %if.else

if.then8:                                         ; preds = %if.then
  %call9 = call i32 @gettimeofday(ptr noundef %_now, ptr noundef null) #7
  %call10 = call i32 @qemu_get_thread_id()
  %tv_sec = getelementptr inbounds %struct.timeval, ptr %_now, i32 0, i32 0
  %3 = load i64, ptr %tv_sec, align 8
  %tv_usec = getelementptr inbounds %struct.timeval, ptr %_now, i32 0, i32 1
  %4 = load i64, ptr %tv_usec, align 8
  %5 = load i64, ptr %size.addr, align 8
  call void (ptr, ...) @qemu_log(ptr noundef @.str.18, i32 noundef %call10, i64 noundef %3, i64 noundef %4, i64 noundef %5)
  br label %if.end

if.else:                                          ; preds = %if.then
  %6 = load i64, ptr %size.addr, align 8
  call void (ptr, ...) @qemu_log(ptr noundef @.str.19, i64 noundef %6)
  br label %if.end

if.end:                                           ; preds = %if.else, %if.then8
  br label %if.end11

if.end11:                                         ; preds = %if.end, %land.lhs.true5, %land.lhs.true, %entry
  ret void
}

; Function Attrs: nounwind sspstrong uwtable
define internal void @trace_e1000x_rx_oversized(i64 noundef %size) #0 {
entry:
  %size.addr = alloca i64, align 8
  store i64 %size, ptr %size.addr, align 8
  %0 = load i64, ptr %size.addr, align 8
  call void @_nocheck__trace_e1000x_rx_oversized(i64 noundef %0)
  ret void
}

; Function Attrs: nounwind sspstrong uwtable
define internal void @e1000x_inc_reg_if_not_full(ptr noundef %mac, i32 noundef %index) #0 {
entry:
  %mac.addr = alloca ptr, align 8
  %index.addr = alloca i32, align 4
  store ptr %mac, ptr %mac.addr, align 8
  store i32 %index, ptr %index.addr, align 4
  %0 = load ptr, ptr %mac.addr, align 8
  %1 = load i32, ptr %index.addr, align 4
  %idxprom = sext i32 %1 to i64
  %arrayidx = getelementptr i32, ptr %0, i64 %idxprom
  %2 = load i32, ptr %arrayidx, align 4
  %cmp = icmp ne i32 %2, -1
  br i1 %cmp, label %if.then, label %if.end

if.then:                                          ; preds = %entry
  %3 = load ptr, ptr %mac.addr, align 8
  %4 = load i32, ptr %index.addr, align 4
  %idxprom1 = sext i32 %4 to i64
  %arrayidx2 = getelementptr i32, ptr %3, i64 %idxprom1
  %5 = load i32, ptr %arrayidx2, align 4
  %inc = add i32 %5, 1
  store i32 %inc, ptr %arrayidx2, align 4
  br label %if.end

if.end:                                           ; preds = %if.then, %entry
  ret void
}

; Function Attrs: nounwind sspstrong uwtable
define dso_local zeroext i1 @e1000x_is_oversized(ptr noundef %mac, i64 noundef %size) #0 {
entry:
  %retval = alloca i1, align 1
  %mac.addr = alloca ptr, align 8
  %size.addr = alloca i64, align 8
  %header_size = alloca i64, align 8
  %maximum_short_size = alloca i64, align 8
  %maximum_large_size = alloca i64, align 8
  store ptr %mac, ptr %mac.addr, align 8
  store i64 %size, ptr %size.addr, align 8
  store i64 18, ptr %header_size, align 8
  %0 = load i64, ptr %header_size, align 8
  %add = add i64 %0, 1500
  store i64 %add, ptr %maximum_short_size, align 8
  store i64 16380, ptr %maximum_large_size, align 8
  %1 = load i64, ptr %size.addr, align 8
  %2 = load i64, ptr %maximum_large_size, align 8
  %cmp = icmp ugt i64 %1, %2
  br i1 %cmp, label %land.lhs.true2, label %lor.lhs.false

lor.lhs.false:                                    ; preds = %entry
  %3 = load i64, ptr %size.addr, align 8
  %4 = load i64, ptr %maximum_short_size, align 8
  %cmp1 = icmp ugt i64 %3, %4
  br i1 %cmp1, label %land.lhs.true, label %if.end

land.lhs.true:                                    ; preds = %lor.lhs.false
  %5 = load ptr, ptr %mac.addr, align 8
  %arrayidx = getelementptr i32, ptr %5, i64 64
  %6 = load i32, ptr %arrayidx, align 4
  %and = and i32 %6, 32
  %tobool = icmp ne i32 %and, 0
  br i1 %tobool, label %if.end, label %land.lhs.true2

land.lhs.true2:                                   ; preds = %land.lhs.true, %entry
  %7 = load ptr, ptr %mac.addr, align 8
  %arrayidx3 = getelementptr i32, ptr %7, i64 64
  %8 = load i32, ptr %arrayidx3, align 4
  %and4 = and i32 %8, 4
  %tobool5 = icmp ne i32 %and4, 0
  br i1 %tobool5, label %if.end, label %if.then

if.then:                                          ; preds = %land.lhs.true2
  %9 = load ptr, ptr %mac.addr, align 8
  call void @e1000x_inc_reg_if_not_full(ptr noundef %9, i32 noundef 4139)
  %10 = load i64, ptr %size.addr, align 8
  call void @trace_e1000x_rx_oversized(i64 noundef %10)
  store i1 true, ptr %retval, align 1
  br label %return

if.end:                                           ; preds = %land.lhs.true2, %land.lhs.true, %lor.lhs.false
  store i1 false, ptr %retval, align 1
  br label %return

return:                                           ; preds = %if.end, %if.then
  %11 = load i1, ptr %retval, align 1
  ret i1 %11
}