; Function Attrs: nounwind sspstrong uwtable
define dso_local noundef zeroext i1 @e1000x_is_oversized(ptr noundef captures(none) %mac, i64 noundef %size) local_unnamed_addr #0 {
entry:
  %_now.i.i = alloca %struct.timeval, align 8
  %cmp = icmp ugt i64 %size, 16380
  br i1 %cmp, label %entry.land.lhs.true2_crit_edge, label %lor.lhs.false

entry.land.lhs.true2_crit_edge:                   ; preds = %entry
  %arrayidx3.phi.trans.insert = getelementptr i8, ptr %mac, i64 256
  %.pre = load i32, ptr %arrayidx3.phi.trans.insert, align 4
  br label %land.lhs.true2

lor.lhs.false:                                    ; preds = %entry
  %cmp1 = icmp samesign ugt i64 %size, 1518
  br i1 %cmp1, label %land.lhs.true, label %return

land.lhs.true:                                    ; preds = %lor.lhs.false
  %arrayidx = getelementptr i8, ptr %mac, i64 256
  %0 = load i32, ptr %arrayidx, align 4
  %and = and i32 %0, 32
  %tobool.not = icmp eq i32 %and, 0
  br i1 %tobool.not, label %land.lhs.true2, label %return

land.lhs.true2:                                   ; preds = %entry.land.lhs.true2_crit_edge, %land.lhs.true
  %1 = phi i32 [ %.pre, %entry.land.lhs.true2_crit_edge ], [ %0, %land.lhs.true ]
  %and4 = and i32 %1, 4
  %tobool5.not = icmp eq i32 %and4, 0
  br i1 %tobool5.not, label %if.then, label %return

if.then:                                          ; preds = %land.lhs.true2
  %arrayidx.i = getelementptr i8, ptr %mac, i64 16556
  %2 = load i32, ptr %arrayidx.i, align 4
  %cmp.not.i = icmp eq i32 %2, -1
  br i1 %cmp.not.i, label %e1000x_inc_reg_if_not_full.exit, label %if.then.i

if.then.i:                                        ; preds = %if.then
  %inc.i = add nuw i32 %2, 1
  store i32 %inc.i, ptr %arrayidx.i, align 4
  br label %e1000x_inc_reg_if_not_full.exit

e1000x_inc_reg_if_not_full.exit:                  ; preds = %if.then, %if.then.i
  call void @llvm.lifetime.start.p0(i64 16, ptr nonnull %_now.i.i)
  %3 = load i32, ptr @trace_events_enabled_count, align 4
  %tobool.i.i = icmp ne i32 %3, 0
  %4 = load i16, ptr @_TRACE_E1000X_RX_OVERSIZED_DSTATE, align 2
  %tobool4.i.i = icmp ne i16 %4, 0
  %or.cond.i.i = select i1 %tobool.i.i, i1 %tobool4.i.i, i1 false
  br i1 %or.cond.i.i, label %land.lhs.true5.i.i, label %trace_e1000x_rx_oversized.exit

land.lhs.true5.i.i:                               ; preds = %e1000x_inc_reg_if_not_full.exit
  %5 = load i32, ptr @qemu_loglevel, align 4
  %and.i.i.i = and i32 %5, 32768
  %cmp.i.not.i.i = icmp eq i32 %and.i.i.i, 0
  br i1 %cmp.i.not.i.i, label %trace_e1000x_rx_oversized.exit, label %if.then.i.i

if.then.i.i:                                      ; preds = %land.lhs.true5.i.i
  %6 = load i8, ptr @message_with_timestamp, align 1
  %tobool7.i.i = trunc i8 %6 to i1
  br i1 %tobool7.i.i, label %if.then8.i.i, label %if.else.i.i

if.then8.i.i:                                     ; preds = %if.then.i.i
  %call9.i.i = call i32 @gettimeofday(ptr noundef nonnull %_now.i.i, ptr noundef null) #11
  %call10.i.i = tail call i32 @qemu_get_thread_id() #11
  %7 = load i64, ptr %_now.i.i, align 8
  %tv_usec.i.i = getelementptr inbounds nuw i8, ptr %_now.i.i, i64 8
  %8 = load i64, ptr %tv_usec.i.i, align 8
  tail call void (ptr, ...) @qemu_log(ptr noundef nonnull @.str.18, i32 noundef %call10.i.i, i64 noundef %7, i64 noundef %8, i64 noundef %size) #11
  br label %trace_e1000x_rx_oversized.exit

if.else.i.i:                                      ; preds = %if.then.i.i
  tail call void (ptr, ...) @qemu_log(ptr noundef nonnull @.str.19, i64 noundef %size) #11
  br label %trace_e1000x_rx_oversized.exit

trace_e1000x_rx_oversized.exit:                   ; preds = %e1000x_inc_reg_if_not_full.exit, %land.lhs.true5.i.i, %if.then8.i.i, %if.else.i.i
  call void @llvm.lifetime.end.p0(i64 16, ptr nonnull %_now.i.i)
  br label %return

return:                                           ; preds = %lor.lhs.false, %land.lhs.true, %land.lhs.true2, %trace_e1000x_rx_oversized.exit
  %retval.0 = phi i1 [ true, %trace_e1000x_rx_oversized.exit ], [ false, %land.lhs.true2 ], [ false, %land.lhs.true ], [ false, %lor.lhs.false ]
  ret i1 %retval.0
}